; Function Attrs: mustprogress uwtable
define dso_local void @_ZN6spdlog7details8registry26set_automatic_registrationEb(ptr noundef nonnull align 8 dereferenceable(336) %0, i1 noundef zeroext %1) local_unnamed_addr #6 align 2 personality ptr @__gxx_personality_v0 {
  %3 = tail call noundef i32 @pthread_mutex_lock(ptr noundef nonnull align 8 dereferenceable(40) %0) #37
  %.not.i.i = icmp eq i32 %3, 0
  br i1 %.not.i.i, label %_ZNSt10lock_guardISt5mutexEC2ERS0_.exit, label %4

4:                                                ; preds = %2
  tail call void @_ZSt20__throw_system_errori(i32 noundef %3) #43
  unreachable

_ZNSt10lock_guardISt5mutexEC2ERS0_.exit:          ; preds = %2
  %5 = zext i1 %1 to i8
  %6 = getelementptr inbounds nuw i8, ptr %0, i64 320
  store i8 %5, ptr %6, align 8, !tbaa !143
  %7 = tail call noundef i32 @pthread_mutex_unlock(ptr noundef nonnull align 8 dereferenceable(40) %0) #37
  ret void
}